target datalayout = "e-m:e-p270:32:32-p271:32:32-p272:64:64-i64:64-i128:128-f80:128-n8:16:32:64-S128"
target triple = "x86_64-pc-linux-gnu"

%struct._xmlNode = type { ptr, i32, ptr, ptr, ptr, ptr, ptr, ptr, ptr, ptr, ptr, ptr, ptr, ptr, i16, i16 }

; Function Attrs: nounwind uwtable
define hidden i32 @dom_hierarchy(ptr noundef %0, ptr noundef %1) #0 {
  %3 = alloca i32, align 4
  %4 = alloca ptr, align 8
  %5 = alloca ptr, align 8
  %6 = alloca ptr, align 8
  store ptr %0, ptr %4, align 8
  store ptr %1, ptr %5, align 8
  %7 = load ptr, ptr %4, align 8
  %8 = icmp eq ptr %7, null
  br i1 %8, label %20, label %9

9:                                                ; preds = %2
  %10 = load ptr, ptr %5, align 8
  %11 = icmp eq ptr %10, null
  br i1 %11, label %20, label %12

12:                                               ; preds = %9
  %13 = load ptr, ptr %5, align 8
  %14 = getelementptr inbounds %struct._xmlNode, ptr %13, i32 0, i32 8
  %15 = load ptr, ptr %14, align 8
  %16 = load ptr, ptr %4, align 8
  %17 = getelementptr inbounds %struct._xmlNode, ptr %16, i32 0, i32 8
  %18 = load ptr, ptr %17, align 8
  %19 = icmp ne ptr %15, %18
  br i1 %19, label %20, label %21

20:                                               ; preds = %12, %9, %2
  store i32 0, ptr %3, align 4
  br label %42

21:                                               ; preds = %12
  %22 = load ptr, ptr %5, align 8
  %23 = getelementptr inbounds %struct._xmlNode, ptr %22, i32 0, i32 1
  %24 = load i32, ptr %23, align 8
  %25 = icmp eq i32 %24, 9
  br i1 %25, label %26, label %27

26:                                               ; preds = %21
  store i32 -1, ptr %3, align 4
  br label %42

27:                                               ; preds = %21
  %28 = load ptr, ptr %4, align 8
  store ptr %28, ptr %6, align 8
  br label %29

29:                                               ; preds = %37, %27
  %30 = load ptr, ptr %6, align 8
  %31 = icmp ne ptr %30, null
  br i1 %31, label %32, label %41

32:                                               ; preds = %29
  %33 = load ptr, ptr %6, align 8
  %34 = load ptr, ptr %5, align 8
  %35 = icmp eq ptr %33, %34
  br i1 %35, label %36, label %37

36:                                               ; preds = %32
  store i32 -1, ptr %3, align 4
  br label %42

37:                                               ; preds = %32
  %38 = load ptr, ptr %6, align 8
  %39 = getelementptr inbounds %struct._xmlNode, ptr %38, i32 0, i32 5
  %40 = load ptr, ptr %39, align 8
  store ptr %40, ptr %6, align 8
  br label %29

41:                                               ; preds = %29
  store i32 0, ptr %3, align 4
  br label %42

42:                                               ; preds = %41, %36, %26, %20
  %43 = load i32, ptr %3, align 4
  ret i32 %43
}