; Function Attrs: nofree norecurse nosync nounwind memory(read, inaccessiblemem: none) uwtable
define hidden noundef i32 @dom_hierarchy(ptr noundef readonly %0, ptr noundef readonly %1) local_unnamed_addr #6 {
  %3 = icmp eq ptr %0, null
  %4 = icmp eq ptr %1, null
  %or.cond = or i1 %3, %4
  br i1 %or.cond, label %.loopexit, label %5

5:                                                ; preds = %2
  %6 = getelementptr inbounds i8, ptr %1, i64 64
  %7 = load ptr, ptr %6, align 8
  %8 = getelementptr inbounds i8, ptr %0, i64 64
  %9 = load ptr, ptr %8, align 8
  %.not = icmp eq ptr %7, %9
  br i1 %.not, label %10, label %.loopexit

10:                                               ; preds = %5
  %11 = getelementptr inbounds i8, ptr %1, i64 8
  %12 = load i32, ptr %11, align 8
  %13 = icmp eq i32 %12, 9
  br i1 %13, label %.loopexit, label %.lr.ph

.lr.ph:                                           ; preds = %10, %15
  %.016 = phi ptr [ %17, %15 ], [ %0, %10 ]
  %14 = icmp eq ptr %.016, %1
  br i1 %14, label %.loopexit, label %15

15:                                               ; preds = %.lr.ph
  %16 = getelementptr inbounds i8, ptr %.016, i64 40
  %17 = load ptr, ptr %16, align 8
  %.not14 = icmp eq ptr %17, null
  br i1 %.not14, label %.loopexit, label %.lr.ph

.loopexit:                                        ; preds = %.lr.ph, %15, %10, %2, %5
  %.011 = phi i32 [ 0, %5 ], [ 0, %2 ], [ -1, %10 ], [ -1, %.lr.ph ], [ 0, %15 ]
  ret i32 %.011
}